target datalayout = "e-m:e-p270:32:32-p271:32:32-p272:64:64-i64:64-i128:128-f80:128-n8:16:32:64-S128"
target triple = "x86_64-pc-linux-gnu"

%struct.Aig_Obj_t_ = type { %union.anon, ptr, ptr, i64, i32, i32, %union.anon.0 }
%union.anon = type { ptr }
%union.anon.0 = type { ptr }
%struct.Aig_Man_t_ = type { ptr, ptr, ptr, ptr, ptr, ptr, ptr, %struct.Aig_Obj_t_, i32, i32, i32, i32, i32, i32, [7 x i32], i32, ptr, i32, ptr, i32, ptr, i32, i32, i32, ptr, i32, i32, i32, i32, i32, ptr, ptr, i32, ptr, ptr, i32, ptr, ptr, i32, i32, i32, ptr, ptr, ptr, ptr, ptr, ptr, ptr, ptr, ptr, ptr, ptr, ptr, ptr, ptr, i32, ptr, ptr, ptr, ptr, i32, i64, i64, i64, ptr, ptr }
%struct.Vec_Ptr_t_ = type { i32, i32, ptr }
%struct.Vec_Int_t_ = type { i32, i32, ptr }

; Function Attrs: inlinehint nounwind uwtable
define internal void @Vec_IntGrow(ptr noundef %0, i32 noundef %1) #3 {
  %3 = alloca ptr, align 8
  %4 = alloca i32, align 4
  store ptr %0, ptr %3, align 8, !tbaa !10
  store i32 %1, ptr %4, align 4, !tbaa !13
  %5 = load ptr, ptr %3, align 8, !tbaa !10
  %6 = getelementptr inbounds nuw %struct.Vec_Int_t_, ptr %5, i32 0, i32 0
  %7 = load i32, ptr %6, align 8, !tbaa !71
  %8 = load i32, ptr %4, align 4, !tbaa !13
  %9 = icmp sge i32 %7, %8
  br i1 %9, label %10, label %11

10:                                               ; preds = %2
  br label %36

11:                                               ; preds = %2
  %12 = load ptr, ptr %3, align 8, !tbaa !10
  %13 = getelementptr inbounds nuw %struct.Vec_Int_t_, ptr %12, i32 0, i32 2
  %14 = load ptr, ptr %13, align 8, !tbaa !63
  %15 = icmp ne ptr %14, null
  br i1 %15, label %16, label %24

16:                                               ; preds = %11
  %17 = load ptr, ptr %3, align 8, !tbaa !10
  %18 = getelementptr inbounds nuw %struct.Vec_Int_t_, ptr %17, i32 0, i32 2
  %19 = load ptr, ptr %18, align 8, !tbaa !63
  %20 = load i32, ptr %4, align 4, !tbaa !13
  %21 = sext i32 %20 to i64
  %22 = mul i64 4, %21
  %23 = call ptr @realloc(ptr noundef %19, i64 noundef %22) #15
  br label %29

24:                                               ; preds = %11
  %25 = load i32, ptr %4, align 4, !tbaa !13
  %26 = sext i32 %25 to i64
  %27 = mul i64 4, %26
  %28 = call noalias ptr @malloc(i64 noundef %27) #12
  br label %29

29:                                               ; preds = %24, %16
  %30 = phi ptr [ %23, %16 ], [ %28, %24 ]
  %31 = load ptr, ptr %3, align 8, !tbaa !10
  %32 = getelementptr inbounds nuw %struct.Vec_Int_t_, ptr %31, i32 0, i32 2
  store ptr %30, ptr %32, align 8, !tbaa !63
  %33 = load i32, ptr %4, align 4, !tbaa !13
  %34 = load ptr, ptr %3, align 8, !tbaa !10
  %35 = getelementptr inbounds nuw %struct.Vec_Int_t_, ptr %34, i32 0, i32 0
  store i32 %33, ptr %35, align 8, !tbaa !71
  br label %36

36:                                               ; preds = %29, %10
  ret void
}

; Function Attrs: inlinehint nounwind uwtable
define internal ptr @Aig_Regular(ptr noundef %0) #3 {
  %2 = alloca ptr, align 8
  store ptr %0, ptr %2, align 8, !tbaa !27
  %3 = load ptr, ptr %2, align 8, !tbaa !27
  %4 = ptrtoint ptr %3 to i64
  %5 = and i64 %4, -2
  %6 = inttoptr i64 %5 to ptr
  ret ptr %6
}

; Function Attrs: inlinehint nounwind uwtable
define internal void @Vec_IntPush(ptr noundef %0, i32 noundef %1) #3 {
  %3 = alloca ptr, align 8
  %4 = alloca i32, align 4
  store ptr %0, ptr %3, align 8, !tbaa !10
  store i32 %1, ptr %4, align 4, !tbaa !13
  %5 = load ptr, ptr %3, align 8, !tbaa !10
  %6 = getelementptr inbounds nuw %struct.Vec_Int_t_, ptr %5, i32 0, i32 1
  %7 = load i32, ptr %6, align 4, !tbaa !61
  %8 = load ptr, ptr %3, align 8, !tbaa !10
  %9 = getelementptr inbounds nuw %struct.Vec_Int_t_, ptr %8, i32 0, i32 0
  %10 = load i32, ptr %9, align 8, !tbaa !71
  %11 = icmp eq i32 %7, %10
  br i1 %11, label %12, label %26

12:                                               ; preds = %2
  %13 = load ptr, ptr %3, align 8, !tbaa !10
  %14 = getelementptr inbounds nuw %struct.Vec_Int_t_, ptr %13, i32 0, i32 0
  %15 = load i32, ptr %14, align 8, !tbaa !71
  %16 = icmp slt i32 %15, 16
  br i1 %16, label %17, label %19

17:                                               ; preds = %12
  %18 = load ptr, ptr %3, align 8, !tbaa !10
  call void @Vec_IntGrow(ptr noundef %18, i32 noundef 16)
  br label %25

19:                                               ; preds = %12
  %20 = load ptr, ptr %3, align 8, !tbaa !10
  %21 = load ptr, ptr %3, align 8, !tbaa !10
  %22 = getelementptr inbounds nuw %struct.Vec_Int_t_, ptr %21, i32 0, i32 0
  %23 = load i32, ptr %22, align 8, !tbaa !71
  %24 = mul nsw i32 2, %23
  call void @Vec_IntGrow(ptr noundef %20, i32 noundef %24)
  br label %25

25:                                               ; preds = %19, %17
  br label %26

26:                                               ; preds = %25, %2
  %27 = load i32, ptr %4, align 4, !tbaa !13
  %28 = load ptr, ptr %3, align 8, !tbaa !10
  %29 = getelementptr inbounds nuw %struct.Vec_Int_t_, ptr %28, i32 0, i32 2
  %30 = load ptr, ptr %29, align 8, !tbaa !63
  %31 = load ptr, ptr %3, align 8, !tbaa !10
  %32 = getelementptr inbounds nuw %struct.Vec_Int_t_, ptr %31, i32 0, i32 1
  %33 = load i32, ptr %32, align 4, !tbaa !61
  %34 = add nsw i32 %33, 1
  store i32 %34, ptr %32, align 4, !tbaa !61
  %35 = sext i32 %33 to i64
  %36 = getelementptr inbounds i32, ptr %30, i64 %35
  store i32 %27, ptr %36, align 4, !tbaa !13
  ret void
}

; Function Attrs: inlinehint nounwind uwtable
define internal i32 @Aig_ObjId(ptr noundef %0) #3 {
  %2 = alloca ptr, align 8
  store ptr %0, ptr %2, align 8, !tbaa !27
  %3 = load ptr, ptr %2, align 8, !tbaa !27
  %4 = getelementptr inbounds nuw %struct.Aig_Obj_t_, ptr %3, i32 0, i32 5
  %5 = load i32, ptr %4, align 4, !tbaa !64
  ret i32 %5
}

; Function Attrs: inlinehint nounwind uwtable
define internal ptr @Vec_IntAlloc(i32 noundef %0) #3 {
  %2 = alloca i32, align 4
  %3 = alloca ptr, align 8
  store i32 %0, ptr %2, align 4, !tbaa !13
  call void @llvm.lifetime.start.p0(i64 8, ptr %3) #11
  %4 = call noalias ptr @malloc(i64 noundef 16) #12
  store ptr %4, ptr %3, align 8, !tbaa !10
  %5 = load i32, ptr %2, align 4, !tbaa !13
  %6 = icmp sgt i32 %5, 0
  br i1 %6, label %7, label %11

7:                                                ; preds = %1
  %8 = load i32, ptr %2, align 4, !tbaa !13
  %9 = icmp slt i32 %8, 16
  br i1 %9, label %10, label %11

10:                                               ; preds = %7
  store i32 16, ptr %2, align 4, !tbaa !13
  br label %11

11:                                               ; preds = %10, %7, %1
  %12 = load ptr, ptr %3, align 8, !tbaa !10
  %13 = getelementptr inbounds nuw %struct.Vec_Int_t_, ptr %12, i32 0, i32 1
  store i32 0, ptr %13, align 4, !tbaa !61
  %14 = load i32, ptr %2, align 4, !tbaa !13
  %15 = load ptr, ptr %3, align 8, !tbaa !10
  %16 = getelementptr inbounds nuw %struct.Vec_Int_t_, ptr %15, i32 0, i32 0
  store i32 %14, ptr %16, align 8, !tbaa !71
  %17 = load ptr, ptr %3, align 8, !tbaa !10
  %18 = getelementptr inbounds nuw %struct.Vec_Int_t_, ptr %17, i32 0, i32 0
  %19 = load i32, ptr %18, align 8, !tbaa !71
  %20 = icmp ne i32 %19, 0
  br i1 %20, label %21, label %28

21:                                               ; preds = %11
  %22 = load ptr, ptr %3, align 8, !tbaa !10
  %23 = getelementptr inbounds nuw %struct.Vec_Int_t_, ptr %22, i32 0, i32 0
  %24 = load i32, ptr %23, align 8, !tbaa !71
  %25 = sext i32 %24 to i64
  %26 = mul i64 4, %25
  %27 = call noalias ptr @malloc(i64 noundef %26) #12
  br label %29

28:                                               ; preds = %11
  br label %29

29:                                               ; preds = %28, %21
  %30 = phi ptr [ %27, %21 ], [ null, %28 ]
  %31 = load ptr, ptr %3, align 8, !tbaa !10
  %32 = getelementptr inbounds nuw %struct.Vec_Int_t_, ptr %31, i32 0, i32 2
  store ptr %30, ptr %32, align 8, !tbaa !63
  %33 = load ptr, ptr %3, align 8, !tbaa !10
  call void @llvm.lifetime.end.p0(i64 8, ptr %3) #11
  ret ptr %33
}

; Function Attrs: inlinehint nounwind uwtable
define internal ptr @Aig_ObjFanin0(ptr noundef %0) #3 {
  %2 = alloca ptr, align 8
  store ptr %0, ptr %2, align 8, !tbaa !27
  %3 = load ptr, ptr %2, align 8, !tbaa !27
  %4 = getelementptr inbounds nuw %struct.Aig_Obj_t_, ptr %3, i32 0, i32 1
  %5 = load ptr, ptr %4, align 8, !tbaa !45
  %6 = call ptr @Aig_Regular(ptr noundef %5)
  ret ptr %6
}

; Function Attrs: inlinehint nounwind uwtable
define internal i32 @Saig_ManPoNum(ptr noundef %0) #3 {
  %2 = alloca ptr, align 8
  store ptr %0, ptr %2, align 8, !tbaa !8
  %3 = load ptr, ptr %2, align 8, !tbaa !8
  %4 = getelementptr inbounds nuw %struct.Aig_Man_t_, ptr %3, i32 0, i32 10
  %5 = load i32, ptr %4, align 8, !tbaa !44
  ret i32 %5
}

; Function Attrs: inlinehint nounwind uwtable
define internal i32 @Saig_ManRegNum(ptr noundef %0) #3 {
  %2 = alloca ptr, align 8
  store ptr %0, ptr %2, align 8, !tbaa !8
  %3 = load ptr, ptr %2, align 8, !tbaa !8
  %4 = getelementptr inbounds nuw %struct.Aig_Man_t_, ptr %3, i32 0, i32 8
  %5 = load i32, ptr %4, align 8, !tbaa !57
  ret i32 %5
}

; Function Attrs: inlinehint nounwind uwtable
define internal i32 @Aig_ObjRefs(ptr noundef %0) #3 {
  %2 = alloca ptr, align 8
  store ptr %0, ptr %2, align 8, !tbaa !27
  %3 = load ptr, ptr %2, align 8, !tbaa !27
  %4 = getelementptr inbounds nuw %struct.Aig_Obj_t_, ptr %3, i32 0, i32 3
  %5 = load i64, ptr %4, align 8
  %6 = lshr i64 %5, 6
  %7 = and i64 %6, 67108863
  %8 = trunc i64 %7 to i32
  ret i32 %8
}

; Function Attrs: inlinehint nounwind uwtable
define internal i32 @Aig_ObjIsNode(ptr noundef %0) #3 {
  %2 = alloca ptr, align 8
  store ptr %0, ptr %2, align 8, !tbaa !27
  %3 = load ptr, ptr %2, align 8, !tbaa !27
  %4 = getelementptr inbounds nuw %struct.Aig_Obj_t_, ptr %3, i32 0, i32 3
  %5 = load i64, ptr %4, align 8
  %6 = and i64 %5, 7
  %7 = trunc i64 %6 to i32
  %8 = icmp eq i32 %7, 5
  br i1 %8, label %16, label %9

9:                                                ; preds = %1
  %10 = load ptr, ptr %2, align 8, !tbaa !27
  %11 = getelementptr inbounds nuw %struct.Aig_Obj_t_, ptr %10, i32 0, i32 3
  %12 = load i64, ptr %11, align 8
  %13 = and i64 %12, 7
  %14 = trunc i64 %13 to i32
  %15 = icmp eq i32 %14, 6
  br label %16

16:                                               ; preds = %9, %1
  %17 = phi i1 [ true, %1 ], [ %15, %9 ]
  %18 = zext i1 %17 to i32
  ret i32 %18
}

; Function Attrs: inlinehint nounwind uwtable
define internal ptr @Vec_PtrEntry(ptr noundef %0, i32 noundef %1) #3 {
  %3 = alloca ptr, align 8
  %4 = alloca i32, align 4
  store ptr %0, ptr %3, align 8, !tbaa !31
  store i32 %1, ptr %4, align 4, !tbaa !13
  %5 = load ptr, ptr %3, align 8, !tbaa !31
  %6 = getelementptr inbounds nuw %struct.Vec_Ptr_t_, ptr %5, i32 0, i32 2
  %7 = load ptr, ptr %6, align 8, !tbaa !42
  %8 = load i32, ptr %4, align 4, !tbaa !13
  %9 = sext i32 %8 to i64
  %10 = getelementptr inbounds ptr, ptr %7, i64 %9
  %11 = load ptr, ptr %10, align 8, !tbaa !43
  ret ptr %11
}

; Function Attrs: inlinehint nounwind uwtable
define internal i32 @Vec_PtrSize(ptr noundef %0) #3 {
  %2 = alloca ptr, align 8
  store ptr %0, ptr %2, align 8, !tbaa !31
  %3 = load ptr, ptr %2, align 8, !tbaa !31
  %4 = getelementptr inbounds nuw %struct.Vec_Ptr_t_, ptr %3, i32 0, i32 1
  %5 = load i32, ptr %4, align 4, !tbaa !40
  ret i32 %5
}

; Function Attrs: nounwind uwtable
define ptr @Llb_Nonlin4CollectHighRefNodes(ptr noundef %0, i32 noundef %1) #0 {
  %3 = alloca ptr, align 8
  %4 = alloca i32, align 4
  %5 = alloca ptr, align 8
  %6 = alloca ptr, align 8
  %7 = alloca i32, align 4
  store ptr %0, ptr %3, align 8, !tbaa !8
  store i32 %1, ptr %4, align 4, !tbaa !13
  call void @llvm.lifetime.start.p0(i64 8, ptr %5) #11
  call void @llvm.lifetime.start.p0(i64 8, ptr %6) #11
  call void @llvm.lifetime.start.p0(i64 4, ptr %7) #11
  %8 = load ptr, ptr %3, align 8, !tbaa !8
  call void @Aig_ManCleanMarkA(ptr noundef %8)
  store i32 0, ptr %7, align 4, !tbaa !13
  br label %9

9:                                                ; preds = %45, %2
  %10 = load i32, ptr %7, align 4, !tbaa !13
  %11 = load ptr, ptr %3, align 8, !tbaa !8
  %12 = getelementptr inbounds nuw %struct.Aig_Man_t_, ptr %11, i32 0, i32 4
  %13 = load ptr, ptr %12, align 8, !tbaa !49
  %14 = call i32 @Vec_PtrSize(ptr noundef %13)
  %15 = icmp slt i32 %10, %14
  br i1 %15, label %16, label %22

16:                                               ; preds = %9
  %17 = load ptr, ptr %3, align 8, !tbaa !8
  %18 = getelementptr inbounds nuw %struct.Aig_Man_t_, ptr %17, i32 0, i32 4
  %19 = load ptr, ptr %18, align 8, !tbaa !49
  %20 = load i32, ptr %7, align 4, !tbaa !13
  %21 = call ptr @Vec_PtrEntry(ptr noundef %19, i32 noundef %20)
  store ptr %21, ptr %6, align 8, !tbaa !27
  br label %22

22:                                               ; preds = %16, %9
  %23 = phi i1 [ false, %9 ], [ true, %16 ]
  br i1 %23, label %24, label %48

24:                                               ; preds = %22
  %25 = load ptr, ptr %6, align 8, !tbaa !27
  %26 = icmp eq ptr %25, null
  br i1 %26, label %31, label %27

27:                                               ; preds = %24
  %28 = load ptr, ptr %6, align 8, !tbaa !27
  %29 = call i32 @Aig_ObjIsNode(ptr noundef %28)
  %30 = icmp ne i32 %29, 0
  br i1 %30, label %32, label %31

31:                                               ; preds = %27, %24
  br label %44

32:                                               ; preds = %27
  %33 = load ptr, ptr %6, align 8, !tbaa !27
  %34 = call i32 @Aig_ObjRefs(ptr noundef %33)
  %35 = load i32, ptr %4, align 4, !tbaa !13
  %36 = icmp sge i32 %34, %35
  br i1 %36, label %37, label %43

37:                                               ; preds = %32
  %38 = load ptr, ptr %6, align 8, !tbaa !27
  %39 = getelementptr inbounds nuw %struct.Aig_Obj_t_, ptr %38, i32 0, i32 3
  %40 = load i64, ptr %39, align 8
  %41 = and i64 %40, -17
  %42 = or i64 %41, 16
  store i64 %42, ptr %39, align 8
  br label %43

43:                                               ; preds = %37, %32
  br label %44

44:                                               ; preds = %43, %31
  br label %45

45:                                               ; preds = %44
  %46 = load i32, ptr %7, align 4, !tbaa !13
  %47 = add nsw i32 %46, 1
  store i32 %47, ptr %7, align 4, !tbaa !13
  br label %9, !llvm.loop !68

48:                                               ; preds = %22
  store i32 0, ptr %7, align 4, !tbaa !13
  br label %49

49:                                               ; preds = %72, %48
  %50 = load i32, ptr %7, align 4, !tbaa !13
  %51 = load ptr, ptr %3, align 8, !tbaa !8
  %52 = call i32 @Saig_ManRegNum(ptr noundef %51)
  %53 = icmp slt i32 %50, %52
  br i1 %53, label %54, label %63

54:                                               ; preds = %49
  %55 = load ptr, ptr %3, align 8, !tbaa !8
  %56 = getelementptr inbounds nuw %struct.Aig_Man_t_, ptr %55, i32 0, i32 3
  %57 = load ptr, ptr %56, align 8, !tbaa !30
  %58 = load i32, ptr %7, align 4, !tbaa !13
  %59 = load ptr, ptr %3, align 8, !tbaa !8
  %60 = call i32 @Saig_ManPoNum(ptr noundef %59)
  %61 = add nsw i32 %58, %60
  %62 = call ptr @Vec_PtrEntry(ptr noundef %57, i32 noundef %61)
  store ptr %62, ptr %6, align 8, !tbaa !27
  br label %63

63:                                               ; preds = %54, %49
  %64 = phi i1 [ false, %49 ], [ true, %54 ]
  br i1 %64, label %65, label %75

65:                                               ; preds = %63
  %66 = load ptr, ptr %6, align 8, !tbaa !27
  %67 = call ptr @Aig_ObjFanin0(ptr noundef %66)
  %68 = getelementptr inbounds nuw %struct.Aig_Obj_t_, ptr %67, i32 0, i32 3
  %69 = load i64, ptr %68, align 8
  %70 = and i64 %69, -17
  %71 = or i64 %70, 0
  store i64 %71, ptr %68, align 8
  br label %72

72:                                               ; preds = %65
  %73 = load i32, ptr %7, align 4, !tbaa !13
  %74 = add nsw i32 %73, 1
  store i32 %74, ptr %7, align 4, !tbaa !13
  br label %49, !llvm.loop !69

75:                                               ; preds = %63
  %76 = call ptr @Vec_IntAlloc(i32 noundef 100)
  store ptr %76, ptr %5, align 8, !tbaa !10
  store i32 0, ptr %7, align 4, !tbaa !13
  br label %77

77:                                               ; preds = %114, %75
  %78 = load i32, ptr %7, align 4, !tbaa !13
  %79 = load ptr, ptr %3, align 8, !tbaa !8
  %80 = getelementptr inbounds nuw %struct.Aig_Man_t_, ptr %79, i32 0, i32 4
  %81 = load ptr, ptr %80, align 8, !tbaa !49
  %82 = call i32 @Vec_PtrSize(ptr noundef %81)
  %83 = icmp slt i32 %78, %82
  br i1 %83, label %84, label %90

84:                                               ; preds = %77
  %85 = load ptr, ptr %3, align 8, !tbaa !8
  %86 = getelementptr inbounds nuw %struct.Aig_Man_t_, ptr %85, i32 0, i32 4
  %87 = load ptr, ptr %86, align 8, !tbaa !49
  %88 = load i32, ptr %7, align 4, !tbaa !13
  %89 = call ptr @Vec_PtrEntry(ptr noundef %87, i32 noundef %88)
  store ptr %89, ptr %6, align 8, !tbaa !27
  br label %90

90:                                               ; preds = %84, %77
  %91 = phi i1 [ false, %77 ], [ true, %84 ]
  br i1 %91, label %92, label %117

92:                                               ; preds = %90
  %93 = load ptr, ptr %6, align 8, !tbaa !27
  %94 = icmp eq ptr %93, null
  br i1 %94, label %99, label %95

95:                                               ; preds = %92
  %96 = load ptr, ptr %6, align 8, !tbaa !27
  %97 = call i32 @Aig_ObjIsNode(ptr noundef %96)
  %98 = icmp ne i32 %97, 0
  br i1 %98, label %100, label %99

99:                                               ; preds = %95, %92
  br label %113

100:                                              ; preds = %95
  %101 = load ptr, ptr %6, align 8, !tbaa !27
  %102 = getelementptr inbounds nuw %struct.Aig_Obj_t_, ptr %101, i32 0, i32 3
  %103 = load i64, ptr %102, align 8
  %104 = lshr i64 %103, 4
  %105 = and i64 %104, 1
  %106 = trunc i64 %105 to i32
  %107 = icmp ne i32 %106, 0
  br i1 %107, label %108, label %112

108:                                              ; preds = %100
  %109 = load ptr, ptr %5, align 8, !tbaa !10
  %110 = load ptr, ptr %6, align 8, !tbaa !27
  %111 = call i32 @Aig_ObjId(ptr noundef %110)
  call void @Vec_IntPush(ptr noundef %109, i32 noundef %111)
  br label %112

112:                                              ; preds = %108, %100
  br label %113

113:                                              ; preds = %112, %99
  br label %114

114:                                              ; preds = %113
  %115 = load i32, ptr %7, align 4, !tbaa !13
  %116 = add nsw i32 %115, 1
  store i32 %116, ptr %7, align 4, !tbaa !13
  br label %77, !llvm.loop !70

117:                                              ; preds = %90
  %118 = load ptr, ptr %3, align 8, !tbaa !8
  call void @Aig_ManCleanMarkA(ptr noundef %118)
  %119 = load ptr, ptr %5, align 8, !tbaa !10
  call void @llvm.lifetime.end.p0(i64 4, ptr %7) #11
  call void @llvm.lifetime.end.p0(i64 8, ptr %6) #11
  call void @llvm.lifetime.end.p0(i64 8, ptr %5) #11
  ret ptr %119
}