; Function Attrs: nounwind uwtable
define noalias noundef ptr @Llb_Nonlin4CollectHighRefNodes(ptr noundef %0, i32 noundef %1) local_unnamed_addr #0 {
  tail call void @Aig_ManCleanMarkA(ptr noundef %0) #18
  %3 = getelementptr inbounds nuw i8, ptr %0, i64 32
  %4 = load ptr, ptr %3, align 8, !tbaa !43
  %5 = getelementptr i8, ptr %4, i64 4
  %.val3851 = load i32, ptr %5, align 4, !tbaa !23
  %6 = icmp sgt i32 %.val3851, 0
  br i1 %6, label %.lr.ph, label %.critedge.preheader

.critedge.preheader:                              ; preds = %25, %2
  %7 = phi ptr [ %4, %2 ], [ %26, %25 ]
  %8 = getelementptr i8, ptr %0, i64 104
  %.val4753 = load i32, ptr %8, align 8, !tbaa !45
  %9 = icmp sgt i32 %.val4753, 0
  br i1 %9, label %.lr.ph55, label %.critedge2

.lr.ph55:                                         ; preds = %.critedge.preheader
  %10 = getelementptr inbounds nuw i8, ptr %0, i64 24
  %11 = getelementptr i8, ptr %0, i64 112
  br label %.critedge

.lr.ph:                                           ; preds = %2, %25
  %12 = phi ptr [ %26, %25 ], [ %4, %2 ]
  %indvars.iv = phi i64 [ %indvars.iv.next, %25 ], [ 0, %2 ]
  %13 = getelementptr i8, ptr %12, i64 8
  %.val41 = load ptr, ptr %13, align 8, !tbaa !25
  %14 = getelementptr inbounds nuw ptr, ptr %.val41, i64 %indvars.iv
  %15 = load ptr, ptr %14, align 8, !tbaa !26
  %16 = icmp eq ptr %15, null
  br i1 %16, label %25, label %17

17:                                               ; preds = %.lr.ph
  %18 = getelementptr i8, ptr %15, i64 24
  %.val45 = load i64, ptr %18, align 8
  %19 = trunc i64 %.val45 to i32
  %20 = and i32 %19, 7
  %21 = add nsw i32 %20, -7
  %narrow.i = icmp ult i32 %21, -2
  %22 = lshr i32 %19, 6
  %.not37 = icmp slt i32 %22, %1
  %or.cond = or i1 %.not37, %narrow.i
  br i1 %or.cond, label %25, label %23

23:                                               ; preds = %17
  %24 = or i64 %.val45, 16
  store i64 %24, ptr %18, align 8
  %.pre = load ptr, ptr %3, align 8, !tbaa !43
  br label %25

25:                                               ; preds = %17, %.lr.ph, %23
  %26 = phi ptr [ %12, %17 ], [ %12, %.lr.ph ], [ %.pre, %23 ]
  %indvars.iv.next = add nuw nsw i64 %indvars.iv, 1
  %27 = getelementptr i8, ptr %26, i64 4
  %.val38 = load i32, ptr %27, align 4, !tbaa !23
  %28 = sext i32 %.val38 to i64
  %29 = icmp slt i64 %indvars.iv.next, %28
  br i1 %29, label %.lr.ph, label %.critedge.preheader, !llvm.loop !60

.critedge:                                        ; preds = %.lr.ph55, %.critedge
  %.154 = phi i32 [ 0, %.lr.ph55 ], [ %43, %.critedge ]
  %30 = load ptr, ptr %10, align 8, !tbaa !33
  %.val43 = load i32, ptr %11, align 8, !tbaa !34
  %31 = add nsw i32 %.val43, %.154
  %32 = getelementptr i8, ptr %30, i64 8
  %.val40 = load ptr, ptr %32, align 8, !tbaa !25
  %33 = sext i32 %31 to i64
  %34 = getelementptr inbounds ptr, ptr %.val40, i64 %33
  %35 = load ptr, ptr %34, align 8, !tbaa !26
  %36 = getelementptr i8, ptr %35, i64 8
  %.val46 = load ptr, ptr %36, align 8, !tbaa !35
  %37 = ptrtoint ptr %.val46 to i64
  %38 = and i64 %37, -2
  %39 = inttoptr i64 %38 to ptr
  %40 = getelementptr inbounds nuw i8, ptr %39, i64 24
  %41 = load i64, ptr %40, align 8
  %42 = and i64 %41, -17
  store i64 %42, ptr %40, align 8
  %43 = add nuw nsw i32 %.154, 1
  %.val47 = load i32, ptr %8, align 8, !tbaa !45
  %44 = icmp slt i32 %43, %.val47
  br i1 %44, label %.critedge, label %.critedge2.loopexit, !llvm.loop !61

.critedge2.loopexit:                              ; preds = %.critedge
  %.pre63 = load ptr, ptr %3, align 8, !tbaa !43
  br label %.critedge2

.critedge2:                                       ; preds = %.critedge2.loopexit, %.critedge.preheader
  %45 = phi ptr [ %.pre63, %.critedge2.loopexit ], [ %7, %.critedge.preheader ]
  %46 = tail call noalias dereferenceable_or_null(16) ptr @malloc(i64 noundef 16) #19
  %47 = getelementptr inbounds nuw i8, ptr %46, i64 4
  store i32 0, ptr %47, align 4, !tbaa !55
  store i32 100, ptr %46, align 8, !tbaa !54
  %48 = tail call noalias dereferenceable_or_null(400) ptr @malloc(i64 noundef 400) #19
  %49 = getelementptr inbounds nuw i8, ptr %46, i64 8
  store ptr %48, ptr %49, align 8, !tbaa !27
  %50 = getelementptr i8, ptr %45, i64 4
  %.val56 = load i32, ptr %50, align 4, !tbaa !23
  %51 = icmp sgt i32 %.val56, 0
  br i1 %51, label %.lr.ph58, label %.critedge4

.lr.ph58:                                         ; preds = %.critedge2, %87
  %52 = phi ptr [ %88, %87 ], [ %45, %.critedge2 ]
  %53 = phi ptr [ %.pre.i65, %87 ], [ %48, %.critedge2 ]
  %indvars.iv60 = phi i64 [ %indvars.iv.next61, %87 ], [ 0, %.critedge2 ]
  %54 = getelementptr i8, ptr %52, i64 8
  %.val39 = load ptr, ptr %54, align 8, !tbaa !25
  %55 = getelementptr inbounds nuw ptr, ptr %.val39, i64 %indvars.iv60
  %56 = load ptr, ptr %55, align 8, !tbaa !26
  %57 = icmp eq ptr %56, null
  br i1 %57, label %87, label %58

58:                                               ; preds = %.lr.ph58
  %59 = getelementptr i8, ptr %56, i64 24
  %.val44 = load i64, ptr %59, align 8
  %60 = trunc i64 %.val44 to i32
  %61 = and i32 %60, 7
  %62 = add nsw i32 %61, -7
  %narrow.i49 = icmp ult i32 %62, -2
  %63 = and i64 %.val44, 16
  %.not35 = icmp eq i64 %63, 0
  %or.cond50 = or i1 %.not35, %narrow.i49
  br i1 %or.cond50, label %87, label %64

64:                                               ; preds = %58
  %65 = getelementptr i8, ptr %56, i64 36
  %.val42 = load i32, ptr %65, align 4, !tbaa !29
  %66 = load i32, ptr %47, align 4, !tbaa !55
  %67 = load i32, ptr %46, align 8, !tbaa !54
  %68 = icmp eq i32 %66, %67
  br i1 %68, label %69, label %Vec_IntPush.exit

69:                                               ; preds = %64
  %70 = icmp slt i32 %66, 16
  br i1 %70, label %71, label %76

71:                                               ; preds = %69
  %.not9.i.i = icmp eq ptr %53, null
  br i1 %.not9.i.i, label %74, label %72

72:                                               ; preds = %71
  %73 = tail call dereferenceable_or_null(64) ptr @realloc(ptr noundef nonnull %53, i64 noundef 64) #20
  br label %Vec_IntPush.exit.sink.split

74:                                               ; preds = %71
  %75 = tail call noalias dereferenceable_or_null(64) ptr @malloc(i64 noundef 64) #19
  br label %Vec_IntPush.exit.sink.split

76:                                               ; preds = %69
  %77 = shl nuw nsw i32 %66, 1
  %.not9.i9.i = icmp eq ptr %53, null
  %78 = zext nneg i32 %77 to i64
  %79 = shl nuw nsw i64 %78, 2
  br i1 %.not9.i9.i, label %82, label %80

80:                                               ; preds = %76
  %81 = tail call ptr @realloc(ptr noundef nonnull %53, i64 noundef %79) #20
  br label %Vec_IntPush.exit.sink.split

82:                                               ; preds = %76
  %83 = tail call noalias ptr @malloc(i64 noundef %79) #19
  br label %Vec_IntPush.exit.sink.split

Vec_IntPush.exit.sink.split:                      ; preds = %80, %82, %72, %74
  %.sink68 = phi ptr [ %73, %72 ], [ %75, %74 ], [ %81, %80 ], [ %83, %82 ]
  %.sink = phi i32 [ 16, %72 ], [ 16, %74 ], [ %77, %80 ], [ %77, %82 ]
  store ptr %.sink68, ptr %49, align 8, !tbaa !27
  store i32 %.sink, ptr %46, align 8, !tbaa !54
  br label %Vec_IntPush.exit

Vec_IntPush.exit:                                 ; preds = %Vec_IntPush.exit.sink.split, %64
  %.pre.i66 = phi ptr [ %53, %64 ], [ %.sink68, %Vec_IntPush.exit.sink.split ]
  %84 = add nsw i32 %66, 1
  store i32 %84, ptr %47, align 4, !tbaa !55
  %85 = sext i32 %66 to i64
  %86 = getelementptr inbounds i32, ptr %.pre.i66, i64 %85
  store i32 %.val42, ptr %86, align 4, !tbaa !30
  %.pre67 = load ptr, ptr %3, align 8, !tbaa !43
  br label %87

87:                                               ; preds = %58, %.lr.ph58, %Vec_IntPush.exit
  %88 = phi ptr [ %52, %58 ], [ %52, %.lr.ph58 ], [ %.pre67, %Vec_IntPush.exit ]
  %.pre.i65 = phi ptr [ %53, %58 ], [ %53, %.lr.ph58 ], [ %.pre.i66, %Vec_IntPush.exit ]
  %indvars.iv.next61 = add nuw nsw i64 %indvars.iv60, 1
  %89 = getelementptr i8, ptr %88, i64 4
  %.val = load i32, ptr %89, align 4, !tbaa !23
  %90 = sext i32 %.val to i64
  %91 = icmp slt i64 %indvars.iv.next61, %90
  br i1 %91, label %.lr.ph58, label %.critedge4, !llvm.loop !62

.critedge4:                                       ; preds = %87, %.critedge2
  tail call void @Aig_ManCleanMarkA(ptr noundef nonnull %0) #18
  ret ptr %46
}